Certificate:
    Data:
        Version: 3 (0x2)
        Serial Number: 2 (0x2)
        Signature Algorithm: sha1WithRSAEncryption
        Issuer: O=ChinaNetCloud, OU=Certificate Team/emailAddress=certificates@chinanetcloud.com, L=Shanghai, ST=Shanghai, C=CN, CN=ChinaNetCloud Root CA
        Validity
            Not Before: Feb 10 08:44:24 2010 GMT
            Not After : Feb  8 08:44:24 2020 GMT
        Subject: C=CN, ST=Shanghai, O=ChinaNetCloud, OU=Certificate Team, CN=ChinaNetCloud LDAP Root CA
        Subject Public Key Info:
            Public Key Algorithm: rsaEncryption
            RSA Public Key: (2048 bit)
                Modulus (2048 bit):
                    00:bc:85:10:7f:54:3c:a5:d3:b3:19:72:d1:18:ff:
                    53:a4:60:ad:c6:24:d4:dd:d6:8b:57:c7:dc:a1:79:
                    73:5c:36:b7:3e:20:65:71:1e:63:54:da:17:a0:62:
                    7e:a9:22:62:c3:12:6a:92:c3:01:a6:27:17:32:47:
                    de:d9:e4:83:b4:35:0a:ea:ee:1e:22:e0:0e:6a:30:
                    c2:46:97:7f:46:64:0b:0c:ff:35:86:ec:1f:50:3e:
                    b4:a6:6f:c1:8e:96:0b:c7:aa:9d:8b:62:56:ca:08:
                    d1:15:d4:83:f7:e7:6d:65:a5:42:c0:e5:99:1e:9b:
                    ce:08:9d:76:c2:74:42:46:7a:9c:7c:a7:17:64:e8:
                    9d:e0:81:1b:1d:ae:22:9e:28:6e:f3:6c:07:32:f6:
                    9b:ea:fd:80:45:fb:87:2d:1c:2c:97:51:d1:36:c9:
                    31:05:91:8f:ae:65:4f:4a:b9:c0:2d:b4:7b:c7:0e:
                    15:3d:f8:d6:79:1b:2e:aa:bb:87:3d:d9:f5:f2:63:
                    06:57:bc:17:ef:cb:9f:6a:84:20:90:90:34:1f:6a:
                    cf:43:ee:66:82:5a:74:6c:c7:6d:16:b6:7b:18:a3:
                    ec:ac:c4:fc:10:73:48:d0:c1:c7:8c:98:82:ab:1c:
                    94:1a:fc:61:df:ee:f0:85:27:f9:f3:ce:ec:3c:2e:
                    5d:f5
                Exponent: 65537 (0x10001)
        X509v3 extensions:
            X509v3 Basic Constraints: critical
                CA:TRUE
            X509v3 Subject Key Identifier:
                E7:33:5F:1C:6C:BA:47:78:1D:02:FC:9A:88:FF:65:AC:99:19:6E:08
            X509v3 Authority Key Identifier:
                keyid:83:9C:F9:4D:D5:50:05:88:58:76:70:83:FD:62:0A:F0:E7:95:B7:00
                DirName:/O=ChinaNetCloud/OU=Certificate Team/emailAddress=certificates@chinanetcloud.com/L=Shanghai/ST=Shanghai/C=CN/CN=ChinaNetCloud Root CA
                serial:80:2D:7A:99:91:38:3F:B6

            X509v3 Key Usage:
                Certificate Sign, CRL Sign
            Netscape Comment:
                OpenSSL LDAP CA Certificate
            Netscape Cert Type:
                SSL CA
            X509v3 Subject Alternative Name:
                email:certificates@chinanetcloud.com
            X509v3 Issuer Alternative Name:
                email:certificates@chinanetcloud.com
            Netscape CA Revocation Url:
                http://sslcert.chinanetcloud.com/ca_root_crl.pem
    Signature Algorithm: sha1WithRSAEncryption
        90:1d:16:bc:9d:15:8b:e3:5e:39:91:53:a9:19:9d:b8:b7:ad:
        5b:c7:dc:a3:f3:83:b9:4d:55:79:e6:40:12:cc:47:04:7a:bd:
        0a:b0:8f:bd:6f:ed:2e:f9:0d:62:89:05:d9:e8:5b:97:3d:aa:
        c3:d7:3f:2d:59:39:78:79:5f:00:23:d1:38:93:84:bf:95:2d:
        f0:a5:ea:0c:63:eb:5d:f8:72:76:17:33:ee:1e:27:ad:32:b8:
        ce:24:ae:98:73:99:7a:b8:20:f9:bc:d4:72:da:d9:d5:cc:5d:
        c1:69:68:a5:71:18:44:9a:5f:29:b3:e1:57:a6:88:c5:63:e6:
        bc:f2:5a:2e:4e:24:67:a8:46:ab:3e:ba:80:90:68:59:84:c9:
        fd:99:e7:7b:76:54:32:fe:ac:cc:d4:b2:8e:bf:b7:4d:89:a4:
        ba:ca:e5:86:46:78:36:ed:25:f0:64:3d:45:b9:9e:d9:f8:eb:
        de:8c:bf:b9:33:f0:d2:bc:c2:de:de:cb:16:84:38:0a:c5:9d:
        f2:3e:c8:1c:91:a9:dd:2b:76:35:44:3b:9f:f9:d8:90:c2:da:
        f0:11:26:0f:12:07:4e:2a:5a:ed:7e:31:16:0e:36:44:92:02:
        96:2a:59:13:02:02:f7:6b:c3:0e:31:1b:c4:5d:31:2c:ac:ce:
        b0:d6:a5:0d
-----BEGIN CERTIFICATE-----
MIIFrzCCBJegAwIBAgIBAjANBgkqhkiG9w0BAQUFADCBtTEWMBQGA1UEChMNQ2hp
bmFOZXRDbG91ZDEZMBcGA1UECxMQQ2VydGlmaWNhdGUgVGVhbTEtMCsGCSqGSIb3
DQEJARYeY2VydGlmaWNhdGVzQGNoaW5hbmV0Y2xvdWQuY29tMREwDwYDVQQHEwhT
aGFuZ2hhaTERMA8GA1UECBMIU2hhbmdoYWkxCzAJBgNVBAYTAkNOMR4wHAYDVQQD
ExVDaGluYU5ldENsb3VkIFJvb3QgQ0EwHhcNMTAwMjEwMDg0NDI0WhcNMjAwMjA4
MDg0NDI0WjB4MQswCQYDVQQGEwJDTjERMA8GA1UECBMIU2hhbmdoYWkxFjAUBgNV
BAoTDUNoaW5hTmV0Q2xvdWQxGTAXBgNVBAsTEENlcnRpZmljYXRlIFRlYW0xIzAh
BgNVBAMTGkNoaW5hTmV0Q2xvdWQgTERBUCBSb290IENBMIIBIjANBgkqhkiG9w0B
AQEFAAOCAQ8AMIIBCgKCAQEAvIUQf1Q8pdOzGXLRGP9TpGCtxiTU3daLV8fcoXlz
XDa3PiBlcR5jVNoXoGJ+qSJiwxJqksMBpicXMkfe2eSDtDUK6u4eIuAOajDCRpd/
RmQLDP81huwfUD60pm/BjpYLx6qdi2JWygjRFdSD9+dtZaVCwOWZHpvOCJ12wnRC
RnqcfKcXZOid4IEbHa4inihu82wHMvab6v2ARfuHLRwsl1HRNskxBZGPrmVPSrnA
LbR7xw4VPfjWeRsuqruHPdn18mMGV7wX78ufaoQgkJA0H2rPQ+5mglp0bMdtFrZ7
GKPsrMT8EHNI0MHHjJiCqxyUGvxh3+7whSf5887sPC5d9QIDAQABo4ICBDCCAgAw
DwYDVR0TAQH/BAUwAwEB/zAdBgNVHQ4EFgQU5zNfHGy6R3gdAvyaiP9lrJkZbggw
geoGA1UdIwSB4jCB34AUg5z5TdVQBYhYdnCD/WIK8OeVtwChgbukgbgwgbUxFjAU
BgNVBAoTDUNoaW5hTmV0Q2xvdWQxGTAXBgNVBAsTEENlcnRpZmljYXRlIFRlYW0x
LTArBgkqhkiG9w0BCQEWHmNlcnRpZmljYXRlc0BjaGluYW5ldGNsb3VkLmNvbTER
MA8GA1UEBxMIU2hhbmdoYWkxETAPBgNVBAgTCFNoYW5naGFpMQswCQYDVQQGEwJD
TjEeMBwGA1UEAxMVQ2hpbmFOZXRDbG91ZCBSb290IENBggkAgC16mZE4P7YwCwYD
VR0PBAQDAgEGMCoGCWCGSAGG+EIBDQQdFhtPcGVuU1NMIExEQVAgQ0EgQ2VydGlm
aWNhdGUwEQYJYIZIAYb4QgEBBAQDAgIEMCkGA1UdEQQiMCCBHmNlcnRpZmljYXRl
c0BjaGluYW5ldGNsb3VkLmNvbTApBgNVHRIEIjAggR5jZXJ0aWZpY2F0ZXNAY2hp
bmFuZXRjbG91ZC5jb20wPwYJYIZIAYb4QgEEBDIWMGh0dHA6Ly9zc2xjZXJ0LmNo
aW5hbmV0Y2xvdWQuY29tL2NhX3Jvb3RfY3JsLnBlbTANBgkqhkiG9w0BAQUFAAOC
AQEAkB0WvJ0Vi+NeOZFTqRmduLetW8fco/ODuU1VeeZAEsxHBHq9CrCPvW/tLvkN
YokF2ehblz2qw9c/LVk5eHlfACPROJOEv5Ut8KXqDGPrXfhydhcz7h4nrTK4ziSu
mHOZergg+bzUctrZ1cxdwWlopXEYRJpfKbPhV6aIxWPmvPJaLk4kZ6hGqz66gJBo
WYTJ/Znne3ZUMv6szNSyjr+3TYmkusrlhkZ4Nu0l8GQ9Rbme2fjr3oy/uTPw0rzC
3t7LFoQ4CsWd8j7IHJGp3St2NUQ7n/nYkMLa8BEmDxIHTipa7X4xFg42RJIClipZ
EwIC92vDDjEbxF0xLKzOsNalDQ==
-----END CERTIFICATE-----
